target datalayout = "e-m:e-p270:32:32-p271:32:32-p272:64:64-i64:64-i128:128-f80:128-n8:16:32:64-S128"
target triple = "x86_64-pc-linux-gnu"

%struct.RTMPContext = type { ptr, ptr, [2 x ptr], [2 x i32], i32, i32, i32, ptr, i32, ptr, ptr, i32, i32, ptr, i32, i32, i32, %struct.RTMPPacket, i32, i64, i64, i32, i32, i32, i32, i32, [11 x i8], i32, i32, ptr, ptr, ptr, i32, i32, ptr, ptr, [42 x i8], ptr, ptr, i32, i32, i32, i32, ptr, i32, i32, i32, i32, i32, double, i32, ptr, [50 x i8], [50 x i8], [500 x i8], i32, i32 }
%struct.RTMPPacket = type { i32, i32, i32, i32, i32, ptr, i32, i32, i32 }

@.str.130 = private unnamed_addr constant [12 x i8] c"FCSubscribe\00", align 1

; Function Attrs: nounwind uwtable
define internal i32 @gen_fcsubscribe_stream(ptr noundef %0, ptr noundef %1, ptr noundef %2) #0 {
  %4 = alloca i32, align 4
  %5 = alloca ptr, align 8
  %6 = alloca ptr, align 8
  %7 = alloca ptr, align 8
  %8 = alloca %struct.RTMPPacket, align 8
  %9 = alloca ptr, align 8
  %10 = alloca i32, align 4
  %11 = alloca i32, align 4
  store ptr %0, ptr %5, align 8, !tbaa !4
  store ptr %1, ptr %6, align 8, !tbaa !22
  store ptr %2, ptr %7, align 8, !tbaa !9
  call void @llvm.lifetime.start.p0(i64 48, ptr %8) #12
  call void @llvm.lifetime.start.p0(i64 8, ptr %9) #12
  call void @llvm.lifetime.start.p0(i64 4, ptr %10) #12
  %12 = load ptr, ptr %7, align 8, !tbaa !9
  %13 = call i64 @strlen(ptr noundef %12) #13
  %14 = add i64 27, %13
  %15 = trunc i64 %14 to i32
  %16 = call i32 @ff_rtmp_packet_create(ptr noundef %8, i32 noundef 3, i32 noundef 20, i32 noundef 0, i32 noundef %15)
  store i32 %16, ptr %10, align 4, !tbaa !11
  %17 = icmp slt i32 %16, 0
  br i1 %17, label %18, label %20

18:                                               ; preds = %3
  %19 = load i32, ptr %10, align 4, !tbaa !11
  store i32 %19, ptr %4, align 4
  store i32 1, ptr %11, align 4
  br label %31

20:                                               ; preds = %3
  %21 = getelementptr inbounds nuw %struct.RTMPPacket, ptr %8, i32 0, i32 5
  %22 = load ptr, ptr %21, align 8, !tbaa !90
  store ptr %22, ptr %9, align 8, !tbaa !9
  call void @ff_amf_write_string(ptr noundef %9, ptr noundef @.str.130)
  %23 = load ptr, ptr %6, align 8, !tbaa !22
  %24 = getelementptr inbounds nuw %struct.RTMPContext, ptr %23, i32 0, i32 28
  %25 = load i32, ptr %24, align 4, !tbaa !56
  %26 = add nsw i32 %25, 1
  store i32 %26, ptr %24, align 4, !tbaa !56
  %27 = sitofp i32 %26 to double
  call void @ff_amf_write_number(ptr noundef %9, double noundef %27)
  call void @ff_amf_write_null(ptr noundef %9)
  %28 = load ptr, ptr %7, align 8, !tbaa !9
  call void @ff_amf_write_string(ptr noundef %9, ptr noundef %28)
  %29 = load ptr, ptr %6, align 8, !tbaa !22
  %30 = call i32 @rtmp_send_packet(ptr noundef %29, ptr noundef %8, i32 noundef 1)
  store i32 %30, ptr %4, align 4
  store i32 1, ptr %11, align 4
  br label %31

31:                                               ; preds = %20, %18
  call void @llvm.lifetime.end.p0(i64 4, ptr %10) #12
  call void @llvm.lifetime.end.p0(i64 8, ptr %9) #12
  call void @llvm.lifetime.end.p0(i64 48, ptr %8) #12
  %32 = load i32, ptr %4, align 4
  ret i32 %32
}