; Function Attrs: nounwind uwtable
define internal fastcc i32 @gen_fcsubscribe_stream(ptr noundef %0, ptr noundef %1) unnamed_addr #0 {
  %3 = alloca %struct.RTMPPacket, align 8
  %4 = alloca ptr, align 8
  call void @llvm.lifetime.start.p0(i64 48, ptr nonnull %3) #11
  call void @llvm.lifetime.start.p0(i64 8, ptr nonnull %4) #11
  %5 = tail call i64 @strlen(ptr noundef nonnull dereferenceable(1) %1) #12
  %6 = trunc i64 %5 to i32
  %7 = add i32 %6, 27
  %8 = call i32 @ff_rtmp_packet_create(ptr noundef nonnull %3, i32 noundef 3, i32 noundef 20, i32 noundef 0, i32 noundef %7) #11
  %9 = icmp slt i32 %8, 0
  br i1 %9, label %18, label %10

10:                                               ; preds = %2
  %11 = getelementptr inbounds nuw i8, ptr %3, i64 24
  %12 = load ptr, ptr %11, align 8, !tbaa !63
  store ptr %12, ptr %4, align 8, !tbaa !31
  call void @ff_amf_write_string(ptr noundef nonnull %4, ptr noundef nonnull @.str.130) #11
  %13 = getelementptr inbounds nuw i8, ptr %0, i64 228
  %14 = load i32, ptr %13, align 4, !tbaa !64
  %15 = add nsw i32 %14, 1
  store i32 %15, ptr %13, align 4, !tbaa !64
  %16 = sitofp i32 %15 to double
  call void @ff_amf_write_number(ptr noundef nonnull %4, double noundef %16) #11
  call void @ff_amf_write_null(ptr noundef nonnull %4) #11
  call void @ff_amf_write_string(ptr noundef nonnull %4, ptr noundef nonnull %1) #11
  %17 = call fastcc i32 @rtmp_send_packet(ptr noundef %0, ptr noundef nonnull %3, i32 noundef 1)
  br label %18

18:                                               ; preds = %2, %10
  %.0 = phi i32 [ %17, %10 ], [ %8, %2 ]
  call void @llvm.lifetime.end.p0(i64 8, ptr nonnull %4) #11
  call void @llvm.lifetime.end.p0(i64 48, ptr nonnull %3) #11
  ret i32 %.0
}